target datalayout = "e-m:e-p270:32:32-p271:32:32-p272:64:64-i64:64-i128:128-f80:128-n8:16:32:64-S128"
target triple = "x86_64-pc-linux-gnu"

@hf_hdfsdata_sourcenode = internal global i32 0, align 4
@hf_hdfsdata_currentpipeline = internal global i32 0, align 4
@hf_hdfsdata_node = internal global i32 0, align 4

; Function Attrs: null_pointer_is_valid sspstrong uwtable
define internal void @dissect_write_request_end(ptr noundef %0, ptr noundef %1, ptr noundef %2) #0 {
  %4 = alloca ptr, align 8
  %5 = alloca ptr, align 8
  %6 = alloca ptr, align 8
  %7 = alloca i32, align 4
  %8 = alloca i32, align 4
  store ptr %0, ptr %4, align 8
  store ptr %1, ptr %5, align 8
  store ptr %2, ptr %6, align 8
  call void @llvm.lifetime.start.p0(i64 4, ptr %7) #4
  store i32 0, ptr %7, align 4
  call void @llvm.lifetime.start.p0(i64 4, ptr %8) #4
  store i32 0, ptr %8, align 4
  %9 = load ptr, ptr %5, align 8
  %10 = load i32, ptr @hf_hdfsdata_sourcenode, align 4
  %11 = load ptr, ptr %4, align 8
  %12 = load ptr, ptr %6, align 8
  %13 = load i32, ptr %12, align 4
  %14 = call ptr @proto_tree_add_item(ptr noundef %9, i32 noundef %10, ptr noundef %11, i32 noundef %13, i32 noundef 1, i32 noundef 0)
  %15 = load ptr, ptr %6, align 8
  %16 = load i32, ptr %15, align 4
  %17 = add i32 %16, 1
  store i32 %17, ptr %15, align 4
  %18 = load ptr, ptr %4, align 8
  %19 = load ptr, ptr %6, align 8
  %20 = load i32, ptr %19, align 4
  %21 = call i32 @tvb_get_ntohl(ptr noundef %18, i32 noundef %20)
  store i32 %21, ptr %8, align 4
  %22 = load ptr, ptr %5, align 8
  %23 = load i32, ptr @hf_hdfsdata_currentpipeline, align 4
  %24 = load ptr, ptr %4, align 8
  %25 = load ptr, ptr %6, align 8
  %26 = load i32, ptr %25, align 4
  %27 = call ptr @proto_tree_add_item(ptr noundef %22, i32 noundef %23, ptr noundef %24, i32 noundef %26, i32 noundef 4, i32 noundef 0)
  %28 = load ptr, ptr %6, align 8
  %29 = load i32, ptr %28, align 4
  %30 = add i32 %29, 4
  store i32 %30, ptr %28, align 4
  store i32 0, ptr %7, align 4
  br label %31

31:                                               ; preds = %45, %3
  %32 = load i32, ptr %7, align 4
  %33 = load i32, ptr %8, align 4
  %34 = icmp slt i32 %32, %33
  br i1 %34, label %35, label %48

35:                                               ; preds = %31
  %36 = load ptr, ptr %5, align 8
  %37 = load i32, ptr @hf_hdfsdata_node, align 4
  %38 = load ptr, ptr %4, align 8
  %39 = load ptr, ptr %6, align 8
  %40 = load i32, ptr %39, align 4
  %41 = call ptr @proto_tree_add_item(ptr noundef %36, i32 noundef %37, ptr noundef %38, i32 noundef %40, i32 noundef 4, i32 noundef 0)
  %42 = load ptr, ptr %6, align 8
  %43 = load i32, ptr %42, align 4
  %44 = add i32 %43, 4
  store i32 %44, ptr %42, align 4
  br label %45

45:                                               ; preds = %35
  %46 = load i32, ptr %7, align 4
  %47 = add i32 %46, 1
  store i32 %47, ptr %7, align 4
  br label %31, !llvm.loop !8

48:                                               ; preds = %31
  call void @llvm.lifetime.end.p0(i64 4, ptr %8) #4
  call void @llvm.lifetime.end.p0(i64 4, ptr %7) #4
  ret void
}