; Function Attrs: null_pointer_is_valid sspstrong uwtable
define internal fastcc void @dissect_write_request_end(ptr noundef %0, ptr noundef %1, ptr noundef captures(none) %2) unnamed_addr #0 {
  %4 = load i32, ptr @hf_hdfsdata_sourcenode, align 4
  %5 = load i32, ptr %2, align 4
  %6 = tail call ptr @proto_tree_add_item(ptr noundef %1, i32 noundef %4, ptr noundef %0, i32 noundef %5, i32 noundef 1, i32 noundef 0)
  %7 = load i32, ptr %2, align 4
  %8 = add i32 %7, 1
  store i32 %8, ptr %2, align 4
  %9 = tail call i32 @tvb_get_ntohl(ptr noundef %0, i32 noundef %8)
  %10 = load i32, ptr @hf_hdfsdata_currentpipeline, align 4
  %11 = load i32, ptr %2, align 4
  %12 = tail call ptr @proto_tree_add_item(ptr noundef %1, i32 noundef %10, ptr noundef %0, i32 noundef %11, i32 noundef 4, i32 noundef 0)
  %13 = load i32, ptr %2, align 4
  %14 = add i32 %13, 4
  store i32 %14, ptr %2, align 4
  %15 = icmp sgt i32 %9, 0
  br i1 %15, label %.lr.ph, label %._crit_edge

.lr.ph:                                           ; preds = %3, %.lr.ph
  %16 = phi i32 [ %20, %.lr.ph ], [ %14, %3 ]
  %.016 = phi i32 [ %21, %.lr.ph ], [ 0, %3 ]
  %17 = load i32, ptr @hf_hdfsdata_node, align 4
  %18 = tail call ptr @proto_tree_add_item(ptr noundef %1, i32 noundef %17, ptr noundef %0, i32 noundef %16, i32 noundef 4, i32 noundef 0)
  %19 = load i32, ptr %2, align 4
  %20 = add i32 %19, 4
  store i32 %20, ptr %2, align 4
  %21 = add nuw nsw i32 %.016, 1
  %exitcond.not = icmp eq i32 %21, %9
  br i1 %exitcond.not, label %._crit_edge, label %.lr.ph, !llvm.loop !8

._crit_edge:                                      ; preds = %.lr.ph, %3
  ret void
}